; Function Attrs: mustprogress nofree norecurse nosync nounwind willreturn memory(argmem: read) uwtable
define internal noundef float @_ZNK5faiss12_GLOBAL__N_110IVFScannerINS_17HammingComputer16EE16distance_to_codeEPKh(ptr nocapture noundef nonnull readonly align 8 dereferenceable(152) %0, ptr nocapture noundef readonly %1) unnamed_addr #16 align 2 {
  %3 = getelementptr inbounds i8, ptr %0, i64 136
  %4 = load <2 x i64>, ptr %1, align 8
  %5 = load <2 x i64>, ptr %3, align 8
  %6 = xor <2 x i64> %5, %4
  %7 = tail call <2 x i64> @llvm.ctpop.v2i64(<2 x i64> %6), !range !13
  %8 = trunc <2 x i64> %7 to <2 x i32>
  %shift = shufflevector <2 x i32> %8, <2 x i32> poison, <2 x i32> <i32 1, i32 poison>
  %9 = add nuw nsw <2 x i32> %shift, %8
  %10 = extractelement <2 x i32> %9, i64 0
  %11 = sitofp i32 %10 to float
  ret float %11
}